; ModuleID = '4/1120.cpp'
source_filename = "4/1120.cpp"
target datalayout = "e-m:e-p270:32:32-p271:32:32-p272:64:64-i64:64-f80:128-n8:16:32:64-S128"
target triple = "x86_64-pc-linux-gnu"

%"class.std::ios_base::Init" = type { i8 }
%"class.std::basic_istream" = type { i32 (...)**, i64, %"class.std::basic_ios" }
%"class.std::basic_ios" = type { %"class.std::ios_base", %"class.std::basic_ostream"*, i8, i8, %"class.std::basic_streambuf"*, %"class.std::ctype"*, %"class.std::num_put"*, %"class.std::num_get"* }
%"class.std::ios_base" = type { i32 (...)**, i64, i64, i32, i32, i32, %"struct.std::ios_base::_Callback_list"*, %"struct.std::ios_base::_Words", [8 x %"struct.std::ios_base::_Words"], i32, %"struct.std::ios_base::_Words"*, %"class.std::locale" }
%"struct.std::ios_base::_Callback_list" = type { %"struct.std::ios_base::_Callback_list"*, void (i32, %"class.std::ios_base"*, i32)*, i32, i32 }
%"struct.std::ios_base::_Words" = type { i8*, i64 }
%"class.std::locale" = type { %"class.std::locale::_Impl"* }
%"class.std::locale::_Impl" = type { i32, %"class.std::locale::facet"**, i64, %"class.std::locale::facet"**, i8** }
%"class.std::locale::facet" = type <{ i32 (...)**, i32, [4 x i8] }>
%"class.std::basic_ostream" = type { i32 (...)**, %"class.std::basic_ios" }
%"class.std::basic_streambuf" = type { i32 (...)**, i8*, i8*, i8*, i8*, i8*, i8*, %"class.std::locale" }
%"class.std::ctype" = type <{ %"class.std::locale::facet.base", [4 x i8], %struct.__locale_struct*, i8, [7 x i8], i32*, i32*, i16*, i8, [256 x i8], [256 x i8], i8, [6 x i8] }>
%"class.std::locale::facet.base" = type <{ i32 (...)**, i32 }>
%struct.__locale_struct = type { [13 x %struct.__locale_data*], i16*, i32*, i32*, [13 x i8*] }
%struct.__locale_data = type opaque
%"class.std::num_put" = type { %"class.std::locale::facet.base", [4 x i8] }
%"class.std::num_get" = type { %"class.std::locale::facet.base", [4 x i8] }

@_ZStL8__ioinit = internal global %"class.std::ios_base::Init" zeroinitializer, align 1
@__dso_handle = external hidden global i8
@_ZSt3cin = external dso_local global %"class.std::basic_istream", align 8
@_ZSt4cout = external dso_local global %"class.std::basic_ostream", align 8
@llvm.global_ctors = appending global [1 x { i32, void ()*, i8* }] [{ i32, void ()*, i8* } { i32 65535, void ()* @_GLOBAL__sub_I_1120.cpp, i8* null }]

; Function Attrs: noinline uwtable
define internal void @__cxx_global_var_init() #0 section ".text.startup" {
  call void @_ZNSt8ios_base4InitC1Ev(%"class.std::ios_base::Init"* @_ZStL8__ioinit)
  %1 = call i32 @__cxa_atexit(void (i8*)* bitcast (void (%"class.std::ios_base::Init"*)* @_ZNSt8ios_base4InitD1Ev to void (i8*)*), i8* getelementptr inbounds (%"class.std::ios_base::Init", %"class.std::ios_base::Init"* @_ZStL8__ioinit, i32 0, i32 0), i8* @__dso_handle) #3
  ret void
}

declare dso_local void @_ZNSt8ios_base4InitC1Ev(%"class.std::ios_base::Init"*) unnamed_addr #1

; Function Attrs: nounwind
declare dso_local void @_ZNSt8ios_base4InitD1Ev(%"class.std::ios_base::Init"*) unnamed_addr #2

; Function Attrs: nounwind
declare dso_local i32 @__cxa_atexit(void (i8*)*, i8*, i8*) #3

; Function Attrs: noinline norecurse uwtable
define dso_local i32 @main() #4 {
  %1 = alloca i32, align 4
  %2 = alloca i32, align 4
  %3 = alloca i32, align 4
  %4 = alloca [100 x [100 x i32]], align 16
  %5 = alloca i32, align 4
  %6 = alloca i32, align 4
  %7 = alloca i32, align 4
  %8 = alloca i32, align 4
  store i32 0, i32* %1, align 4
  %9 = call dereferenceable(280) %"class.std::basic_istream"* @_ZNSirsERi(%"class.std::basic_istream"* @_ZSt3cin, i32* dereferenceable(4) %3)
  %10 = call dereferenceable(280) %"class.std::basic_istream"* @_ZNSirsERi(%"class.std::basic_istream"* %9, i32* dereferenceable(4) %2)
  store i32 0, i32* %5, align 4
  br label %11

11:                                               ; preds = %32, %0
  %12 = load i32, i32* %5, align 4
  %13 = load i32, i32* %3, align 4
  %14 = icmp slt i32 %12, %13
  br i1 %14, label %15, label %35

15:                                               ; preds = %11
  store i32 0, i32* %6, align 4
  br label %16

16:                                               ; preds = %28, %15
  %17 = load i32, i32* %6, align 4
  %18 = load i32, i32* %2, align 4
  %19 = icmp slt i32 %17, %18
  br i1 %19, label %20, label %31

20:                                               ; preds = %16
  %21 = load i32, i32* %5, align 4
  %22 = sext i32 %21 to i64
  %23 = getelementptr inbounds [100 x [100 x i32]], [100 x [100 x i32]]* %4, i64 0, i64 %22
  %24 = load i32, i32* %6, align 4
  %25 = sext i32 %24 to i64
  %26 = getelementptr inbounds [100 x i32], [100 x i32]* %23, i64 0, i64 %25
  %27 = call dereferenceable(280) %"class.std::basic_istream"* @_ZNSirsERi(%"class.std::basic_istream"* @_ZSt3cin, i32* dereferenceable(4) %26)
  br label %28

28:                                               ; preds = %20
  %29 = load i32, i32* %6, align 4
  %30 = add nsw i32 %29, 1
  store i32 %30, i32* %6, align 4
  br label %16

31:                                               ; preds = %16
  br label %32

32:                                               ; preds = %31
  %33 = load i32, i32* %5, align 4
  %34 = add nsw i32 %33, 1
  store i32 %34, i32* %5, align 4
  br label %11

35:                                               ; preds = %11
  store i32 0, i32* %7, align 4
  br label %36

36:                                               ; preds = %79, %35
  %37 = load i32, i32* %7, align 4
  %38 = load i32, i32* %3, align 4
  %39 = load i32, i32* %2, align 4
  %40 = add nsw i32 %38, %39
  %41 = sub nsw i32 %40, 1
  %42 = icmp slt i32 %37, %41
  br i1 %42, label %43, label %82

43:                                               ; preds = %36
  store i32 0, i32* %8, align 4
  br label %44

44:                                               ; preds = %75, %43
  %45 = load i32, i32* %8, align 4
  %46 = load i32, i32* %7, align 4
  %47 = icmp sle i32 %45, %46
  br i1 %47, label %48, label %78

48:                                               ; preds = %44
  %49 = load i32, i32* %8, align 4
  %50 = load i32, i32* %3, align 4
  %51 = icmp slt i32 %49, %50
  br i1 %51, label %52, label %74

52:                                               ; preds = %48
  %53 = load i32, i32* %7, align 4
  %54 = load i32, i32* %8, align 4
  %55 = sub nsw i32 %53, %54
  %56 = load i32, i32* %2, align 4
  %57 = icmp slt i32 %55, %56
  br i1 %57, label %58, label %74

58:                                               ; preds = %52
  %59 = getelementptr inbounds [100 x [100 x i32]], [100 x [100 x i32]]* %4, i64 0, i64 0
  %60 = load i32, i32* %8, align 4
  %61 = sext i32 %60 to i64
  %62 = getelementptr inbounds [100 x i32], [100 x i32]* %59, i64 %61
  %63 = getelementptr inbounds [100 x i32], [100 x i32]* %62, i64 0, i64 0
  %64 = load i32, i32* %7, align 4
  %65 = sext i32 %64 to i64
  %66 = getelementptr inbounds i32, i32* %63, i64 %65
  %67 = load i32, i32* %8, align 4
  %68 = sext i32 %67 to i64
  %69 = sub i64 0, %68
  %70 = getelementptr inbounds i32, i32* %66, i64 %69
  %71 = load i32, i32* %70, align 4
  %72 = call dereferenceable(272) %"class.std::basic_ostream"* @_ZNSolsEi(%"class.std::basic_ostream"* @_ZSt4cout, i32 %71)
  %73 = call dereferenceable(272) %"class.std::basic_ostream"* @_ZNSolsEPFRSoS_E(%"class.std::basic_ostream"* %72, %"class.std::basic_ostream"* (%"class.std::basic_ostream"*)* @_ZSt4endlIcSt11char_traitsIcEERSt13basic_ostreamIT_T0_ES6_)
  br label %74

74:                                               ; preds = %58, %52, %48
  br label %75

75:                                               ; preds = %74
  %76 = load i32, i32* %8, align 4
  %77 = add nsw i32 %76, 1
  store i32 %77, i32* %8, align 4
  br label %44

78:                                               ; preds = %44
  br label %79

79:                                               ; preds = %78
  %80 = load i32, i32* %7, align 4
  %81 = add nsw i32 %80, 1
  store i32 %81, i32* %7, align 4
  br label %36

82:                                               ; preds = %36
  ret i32 0
}

declare dso_local dereferenceable(280) %"class.std::basic_istream"* @_ZNSirsERi(%"class.std::basic_istream"*, i32* dereferenceable(4)) #1

declare dso_local dereferenceable(272) %"class.std::basic_ostream"* @_ZNSolsEi(%"class.std::basic_ostream"*, i32) #1

declare dso_local dereferenceable(272) %"class.std::basic_ostream"* @_ZNSolsEPFRSoS_E(%"class.std::basic_ostream"*, %"class.std::basic_ostream"* (%"class.std::basic_ostream"*)*) #1

declare dso_local dereferenceable(272) %"class.std::basic_ostream"* @_ZSt4endlIcSt11char_traitsIcEERSt13basic_ostreamIT_T0_ES6_(%"class.std::basic_ostream"* dereferenceable(272)) #1

; Function Attrs: noinline uwtable
define internal void @_GLOBAL__sub_I_1120.cpp() #0 section ".text.startup" {
  call void @__cxx_global_var_init()
  ret void
}


!llvm.module.flags = !{!0}
!llvm.ident = !{!1}

!0 = !{i32 1, !"wchar_size", i32 4}
!1 = !{!"clang version 10.0.0-4ubuntu1 "}
